target datalayout = "e-m:e-p270:32:32-p271:32:32-p272:64:64-i64:64-i128:128-f80:128-n8:16:32:64-S128"
target triple = "x86_64-pc-linux-gnu"

%struct.MpegEncContext = type { ptr, i32, i32, i32, [12 x i32], i32, %struct.ScanTable, %struct.ScanTable, [64 x i8], [64 x i8], ptr, ptr, i32, i32, i32, i32, i32, i32, i32, i32, i32, i32, i32, i32, i32, i32, i32, i32, i32, i32, i32, i32, i64, i64, ptr, %struct.BufferPoolContext, i32, i32, %union.anon, i32, %struct.MPVWorkPicture, %struct.MPVWorkPicture, %struct.MPVWorkPicture, i32, [3 x i32], ptr, [3 x ptr], ptr, ptr, ptr, ptr, ptr, ptr, [3 x ptr], i32, ptr, ptr, ptr, ptr, %struct.ScratchpadContext, i32, i32, i32, i32, i32, i32, %struct.BlockDSPContext, %struct.H264ChromaContext, %struct.HpelDSPContext, %struct.IDCTDSPContext, %struct.QpelDSPContext, %struct.VideoDSPContext, %struct.H263DSPContext, ptr, [2 x [2 x ptr]], i32, i32, [2 x [4 x [2 x i32]]], [2 x [2 x i32]], [2 x [2 x [2 x i32]]], [2 x [64 x i16]], i32, i32, i32, i32, i32, [6 x i32], [6 x i32], [3 x ptr], ptr, [64 x i16], [64 x i16], [64 x i16], [64 x i16], i32, i32, %struct.GetBitContext, i32, i32, i32, i32, i32, i32, i32, i32, i32, i32, i32, i32, i32, i32, i32, i64, i64, i16, i16, i16, i16, i32, i32, i32, i32, i32, i32, i32, i32, i32, [3 x i32], i32, i32, i32, i32, i32, i32, %struct.GetBitContext, i32, [2 x [2 x i32]], i32, i32, i32, i32, i32, i32, i32, i32, i32, i32, i32, i32, i32, i32, [2 x i32], i32, i32, ptr, ptr, ptr, ptr, ptr, i32, i32, %struct.ERContext }
%struct.ScanTable = type { ptr, [64 x i8], [64 x i8] }
%struct.BufferPoolContext = type { ptr, ptr, ptr, ptr, ptr, i32, i32, i32 }
%union.anon = type { [32 x ptr] }
%struct.MPVWorkPicture = type { [3 x ptr], [3 x i64], ptr, ptr, [2 x ptr], ptr, ptr, [2 x ptr], i32 }
%struct.ScratchpadContext = type { ptr, ptr, %union.anon.0, i32 }
%union.anon.0 = type { ptr }
%struct.BlockDSPContext = type { ptr, ptr, [2 x ptr] }
%struct.H264ChromaContext = type { [4 x ptr], [4 x ptr] }
%struct.HpelDSPContext = type { [4 x [4 x ptr]], [4 x [4 x ptr]], [4 x [4 x ptr]], [4 x ptr] }
%struct.IDCTDSPContext = type { ptr, ptr, ptr, ptr, ptr, ptr, [64 x i8], i32, i32 }
%struct.QpelDSPContext = type { [2 x [16 x ptr]], [2 x [16 x ptr]], [2 x [16 x ptr]] }
%struct.VideoDSPContext = type { ptr, ptr }
%struct.H263DSPContext = type { ptr, ptr }
%struct.GetBitContext = type { ptr, ptr, i32, i32, i32 }
%struct.ERContext = type { ptr, ptr, i32, ptr, i32, i32, i32, i64, i64, i32, i32, ptr, ptr, [3 x ptr], ptr, ptr, [2 x [4 x [2 x i32]]], %struct.ERPicture, %struct.ERPicture, %struct.ERPicture, [2 x ptr], [2 x ptr], i16, i16, i32, i32, ptr, ptr }
%struct.ERPicture = type { ptr, ptr, ptr, [2 x ptr], [2 x ptr], ptr, i32 }
%struct.AVCodecContext = type { ptr, i32, i32, ptr, i32, i32, ptr, ptr, ptr, i64, i32, i32, ptr, i32, %struct.AVRational, %struct.AVRational, %struct.AVRational, i32, i32, i32, i32, i32, %struct.AVRational, i32, i32, i32, i32, i32, i32, i32, i32, i32, i32, i32, ptr, ptr, i32, float, float, float, float, float, float, float, float, float, i32, i32, i32, i32, i32, i32, i32, i32, i32, i32, i32, i32, ptr, ptr, ptr, i32, i32, i32, i32, i32, i32, i32, i32, i32, i32, %struct.AVChannelLayout, i32, i32, i32, i32, i32, i32, i32, i32, ptr, i32, i32, i32, float, float, i32, i32, i32, i32, i32, ptr, i64, i64, float, float, i32, i32, ptr, ptr, i32, i32, i32, i32, i32, ptr, ptr, ptr, ptr, i32, i32, [8 x i64], i32, i32, i32, i32, i32, i32, i32, ptr, ptr, i32, i32, i32, i32, i32, i32, i32, i32, i32, i32, ptr, ptr, i32, i32, ptr, ptr, ptr, ptr, i32, i32, i64, i32, i32, i64, ptr, i64, ptr, i32, ptr, i32 }
%struct.AVRational = type { i32, i32 }
%struct.AVChannelLayout = type { i32, i32, %union.anon.1, ptr }
%union.anon.1 = type { i64 }
%struct.MPVPicture = type { ptr, ptr, ptr, [2 x ptr], [2 x ptr], ptr, ptr, ptr, [2 x ptr], ptr, i32, i32, i32, i32, i32, i32, i32, i32, i32, i32, %struct.ThreadProgress }
%struct.ThreadProgress = type { i32, i32, %union.pthread_mutex_t, %union.pthread_cond_t }
%union.pthread_mutex_t = type { %struct.__pthread_mutex_s }
%struct.__pthread_mutex_s = type { i32, i32, i32, i32, i32, i16, i16, %struct.__pthread_internal_list }
%struct.__pthread_internal_list = type { ptr, ptr }
%union.pthread_cond_t = type { %struct.__pthread_cond_s }
%struct.__pthread_cond_s = type { %union.__atomic_wide_counter, %union.__atomic_wide_counter, [2 x i32], [2 x i32], i32, i32, [2 x i32] }
%union.__atomic_wide_counter = type { i64 }
%struct.AVVideoBlockParams = type { i32, i32, i32, i32, i32 }
%struct.AVVideoEncParams = type { i32, i64, i64, i32, i32, [4 x [2 x i32]] }

@.str = private unnamed_addr constant [30 x i8] c"Assertion %s failed at %s:%d\0A\00", align 1
@.str.10 = private unnamed_addr constant [21 x i8] c"idx < par->nb_blocks\00", align 1
@.str.11 = private unnamed_addr constant [31 x i8] c"./libavutil/video_enc_params.h\00", align 1

; Function Attrs: alwaysinline nounwind uwtable
define internal ptr @av_video_enc_params_block(ptr noundef %0, i32 noundef %1) #8 {
  %3 = alloca ptr, align 8
  %4 = alloca i32, align 4
  store ptr %0, ptr %3, align 8, !tbaa !131
  store i32 %1, ptr %4, align 4, !tbaa !68
  br label %5

5:                                                ; preds = %2
  %6 = load i32, ptr %4, align 4, !tbaa !68
  %7 = load ptr, ptr %3, align 8, !tbaa !131
  %8 = getelementptr inbounds nuw %struct.AVVideoEncParams, ptr %7, i32 0, i32 0
  %9 = load i32, ptr %8, align 8, !tbaa !143
  %10 = icmp ult i32 %6, %9
  br i1 %10, label %12, label %11

11:                                               ; preds = %5
  call void (ptr, i32, ptr, ...) @av_log(ptr noundef null, i32 noundef 0, ptr noundef @.str, ptr noundef @.str.10, ptr noundef @.str.11, i32 noundef 145)
  call void @abort() #12
  unreachable

12:                                               ; preds = %5
  br label %13

13:                                               ; preds = %12
  %14 = load ptr, ptr %3, align 8, !tbaa !131
  %15 = load ptr, ptr %3, align 8, !tbaa !131
  %16 = getelementptr inbounds nuw %struct.AVVideoEncParams, ptr %15, i32 0, i32 1
  %17 = load i64, ptr %16, align 8, !tbaa !145
  %18 = getelementptr inbounds nuw i8, ptr %14, i64 %17
  %19 = load i32, ptr %4, align 4, !tbaa !68
  %20 = zext i32 %19 to i64
  %21 = load ptr, ptr %3, align 8, !tbaa !131
  %22 = getelementptr inbounds nuw %struct.AVVideoEncParams, ptr %21, i32 0, i32 2
  %23 = load i64, ptr %22, align 8, !tbaa !146
  %24 = mul i64 %20, %23
  %25 = getelementptr inbounds nuw i8, ptr %18, i64 %24
  ret ptr %25
}

; Function Attrs: nounwind uwtable
define i32 @ff_mpv_export_qp_table(ptr noundef %0, ptr noundef %1, ptr noundef %2, i32 noundef %3) #3 {
  %5 = alloca i32, align 4
  %6 = alloca ptr, align 8
  %7 = alloca ptr, align 8
  %8 = alloca ptr, align 8
  %9 = alloca i32, align 4
  %10 = alloca ptr, align 8
  %11 = alloca i32, align 4
  %12 = alloca i32, align 4
  %13 = alloca i32, align 4
  %14 = alloca i32, align 4
  %15 = alloca i32, align 4
  %16 = alloca i32, align 4
  %17 = alloca i32, align 4
  %18 = alloca ptr, align 8
  store ptr %0, ptr %6, align 8, !tbaa !4
  store ptr %1, ptr %7, align 8, !tbaa !97
  store ptr %2, ptr %8, align 8, !tbaa !95
  store i32 %3, ptr %9, align 4, !tbaa !68
  call void @llvm.lifetime.start.p0(i64 8, ptr %10) #11
  call void @llvm.lifetime.start.p0(i64 4, ptr %11) #11
  %19 = load i32, ptr %9, align 4, !tbaa !68
  %20 = icmp eq i32 %19, 0
  %21 = select i1 %20, i32 2, i32 1
  store i32 %21, ptr %11, align 4, !tbaa !68
  call void @llvm.lifetime.start.p0(i64 4, ptr %12) #11
  %22 = load ptr, ptr %8, align 8, !tbaa !95
  %23 = getelementptr inbounds nuw %struct.MPVPicture, ptr %22, i32 0, i32 11
  %24 = load i32, ptr %23, align 4, !tbaa !128
  %25 = load ptr, ptr %8, align 8, !tbaa !95
  %26 = getelementptr inbounds nuw %struct.MPVPicture, ptr %25, i32 0, i32 10
  %27 = load i32, ptr %26, align 8, !tbaa !127
  %28 = mul nsw i32 %24, %27
  store i32 %28, ptr %12, align 4, !tbaa !68
  %29 = load ptr, ptr %6, align 8, !tbaa !4
  %30 = getelementptr inbounds nuw %struct.MpegEncContext, ptr %29, i32 0, i32 10
  %31 = load ptr, ptr %30, align 8, !tbaa !11
  %32 = getelementptr inbounds nuw %struct.AVCodecContext, ptr %31, i32 0, i32 140
  %33 = load i32, ptr %32, align 4, !tbaa !130
  %34 = and i32 %33, 4
  %35 = icmp ne i32 %34, 0
  br i1 %35, label %37, label %36

36:                                               ; preds = %4
  store i32 0, ptr %5, align 4
  store i32 1, ptr %13, align 4
  br label %110

37:                                               ; preds = %4
  %38 = load ptr, ptr %7, align 8, !tbaa !97
  %39 = load i32, ptr %12, align 4, !tbaa !68
  %40 = call ptr @av_video_enc_params_create_side_data(ptr noundef %38, i32 noundef 2, i32 noundef %39)
  store ptr %40, ptr %10, align 8, !tbaa !131
  %41 = load ptr, ptr %10, align 8, !tbaa !131
  %42 = icmp ne ptr %41, null
  br i1 %42, label %44, label %43

43:                                               ; preds = %37
  store i32 -12, ptr %5, align 4
  store i32 1, ptr %13, align 4
  br label %110

44:                                               ; preds = %37
  call void @llvm.lifetime.start.p0(i64 4, ptr %14) #11
  store i32 0, ptr %14, align 4, !tbaa !68
  br label %45

45:                                               ; preds = %106, %44
  %46 = load i32, ptr %14, align 4, !tbaa !68
  %47 = load ptr, ptr %8, align 8, !tbaa !95
  %48 = getelementptr inbounds nuw %struct.MPVPicture, ptr %47, i32 0, i32 11
  %49 = load i32, ptr %48, align 4, !tbaa !128
  %50 = icmp ult i32 %46, %49
  br i1 %50, label %52, label %51

51:                                               ; preds = %45
  store i32 2, ptr %13, align 4
  call void @llvm.lifetime.end.p0(i64 4, ptr %14) #11
  br label %109

52:                                               ; preds = %45
  call void @llvm.lifetime.start.p0(i64 4, ptr %15) #11
  store i32 0, ptr %15, align 4, !tbaa !68
  br label %53

53:                                               ; preds = %102, %52
  %54 = load i32, ptr %15, align 4, !tbaa !68
  %55 = load ptr, ptr %8, align 8, !tbaa !95
  %56 = getelementptr inbounds nuw %struct.MPVPicture, ptr %55, i32 0, i32 10
  %57 = load i32, ptr %56, align 8, !tbaa !127
  %58 = icmp ult i32 %54, %57
  br i1 %58, label %60, label %59

59:                                               ; preds = %53
  store i32 5, ptr %13, align 4
  call void @llvm.lifetime.end.p0(i64 4, ptr %15) #11
  br label %105

60:                                               ; preds = %53
  call void @llvm.lifetime.start.p0(i64 4, ptr %16) #11
  %61 = load i32, ptr %14, align 4, !tbaa !68
  %62 = load ptr, ptr %8, align 8, !tbaa !95
  %63 = getelementptr inbounds nuw %struct.MPVPicture, ptr %62, i32 0, i32 10
  %64 = load i32, ptr %63, align 8, !tbaa !127
  %65 = mul i32 %61, %64
  %66 = load i32, ptr %15, align 4, !tbaa !68
  %67 = add i32 %65, %66
  store i32 %67, ptr %16, align 4, !tbaa !68
  call void @llvm.lifetime.start.p0(i64 4, ptr %17) #11
  %68 = load i32, ptr %14, align 4, !tbaa !68
  %69 = load ptr, ptr %8, align 8, !tbaa !95
  %70 = getelementptr inbounds nuw %struct.MPVPicture, ptr %69, i32 0, i32 12
  %71 = load i32, ptr %70, align 8, !tbaa !129
  %72 = mul i32 %68, %71
  %73 = load i32, ptr %15, align 4, !tbaa !68
  %74 = add i32 %72, %73
  store i32 %74, ptr %17, align 4, !tbaa !68
  call void @llvm.lifetime.start.p0(i64 8, ptr %18) #11
  %75 = load ptr, ptr %10, align 8, !tbaa !131
  %76 = load i32, ptr %16, align 4, !tbaa !68
  %77 = call ptr @av_video_enc_params_block(ptr noundef %75, i32 noundef %76)
  store ptr %77, ptr %18, align 8, !tbaa !133
  %78 = load i32, ptr %15, align 4, !tbaa !68
  %79 = mul i32 %78, 16
  %80 = load ptr, ptr %18, align 8, !tbaa !133
  %81 = getelementptr inbounds nuw %struct.AVVideoBlockParams, ptr %80, i32 0, i32 0
  store i32 %79, ptr %81, align 4, !tbaa !135
  %82 = load i32, ptr %14, align 4, !tbaa !68
  %83 = mul i32 %82, 16
  %84 = load ptr, ptr %18, align 8, !tbaa !133
  %85 = getelementptr inbounds nuw %struct.AVVideoBlockParams, ptr %84, i32 0, i32 1
  store i32 %83, ptr %85, align 4, !tbaa !137
  %86 = load ptr, ptr %18, align 8, !tbaa !133
  %87 = getelementptr inbounds nuw %struct.AVVideoBlockParams, ptr %86, i32 0, i32 2
  store i32 16, ptr %87, align 4, !tbaa !138
  %88 = load ptr, ptr %18, align 8, !tbaa !133
  %89 = getelementptr inbounds nuw %struct.AVVideoBlockParams, ptr %88, i32 0, i32 3
  store i32 16, ptr %89, align 4, !tbaa !139
  %90 = load ptr, ptr %8, align 8, !tbaa !95
  %91 = getelementptr inbounds nuw %struct.MPVPicture, ptr %90, i32 0, i32 2
  %92 = load ptr, ptr %91, align 8, !tbaa !126
  %93 = load i32, ptr %17, align 4, !tbaa !68
  %94 = zext i32 %93 to i64
  %95 = getelementptr inbounds nuw i8, ptr %92, i64 %94
  %96 = load i8, ptr %95, align 1, !tbaa !79
  %97 = sext i8 %96 to i32
  %98 = load i32, ptr %11, align 4, !tbaa !68
  %99 = mul nsw i32 %97, %98
  %100 = load ptr, ptr %18, align 8, !tbaa !133
  %101 = getelementptr inbounds nuw %struct.AVVideoBlockParams, ptr %100, i32 0, i32 4
  store i32 %99, ptr %101, align 4, !tbaa !140
  call void @llvm.lifetime.end.p0(i64 8, ptr %18) #11
  call void @llvm.lifetime.end.p0(i64 4, ptr %17) #11
  call void @llvm.lifetime.end.p0(i64 4, ptr %16) #11
  br label %102

102:                                              ; preds = %60
  %103 = load i32, ptr %15, align 4, !tbaa !68
  %104 = add i32 %103, 1
  store i32 %104, ptr %15, align 4, !tbaa !68
  br label %53, !llvm.loop !141

105:                                              ; preds = %59
  br label %106

106:                                              ; preds = %105
  %107 = load i32, ptr %14, align 4, !tbaa !68
  %108 = add i32 %107, 1
  store i32 %108, ptr %14, align 4, !tbaa !68
  br label %45, !llvm.loop !142

109:                                              ; preds = %51
  store i32 0, ptr %5, align 4
  store i32 1, ptr %13, align 4
  br label %110

110:                                              ; preds = %109, %43, %36
  call void @llvm.lifetime.end.p0(i64 4, ptr %12) #11
  call void @llvm.lifetime.end.p0(i64 4, ptr %11) #11
  call void @llvm.lifetime.end.p0(i64 8, ptr %10) #11
  %111 = load i32, ptr %5, align 4
  ret i32 %111
}