; Function Attrs: nounwind uwtable
define range(i32 -12, 1) i32 @ff_mpv_export_qp_table(ptr noundef readonly captures(none) %0, ptr noundef %1, ptr noundef readonly captures(none) %2, i32 noundef %3) local_unnamed_addr #3 {
  %5 = icmp eq i32 %3, 0
  %6 = getelementptr inbounds nuw i8, ptr %2, i64 108
  %7 = getelementptr inbounds nuw i8, ptr %2, i64 104
  %8 = getelementptr inbounds nuw i8, ptr %0, i64 472
  %9 = load ptr, ptr %8, align 8, !tbaa !4
  %10 = getelementptr inbounds nuw i8, ptr %9, i64 788
  %11 = load i32, ptr %10, align 4, !tbaa !121
  %12 = and i32 %11, 4
  %.not = icmp eq i32 %12, 0
  br i1 %.not, label %.loopexit, label %13

13:                                               ; preds = %4
  %14 = load i32, ptr %6, align 4, !tbaa !119
  %15 = load i32, ptr %7, align 8, !tbaa !118
  %16 = mul nsw i32 %15, %14
  %17 = tail call ptr @av_video_enc_params_create_side_data(ptr noundef %1, i32 noundef 2, i32 noundef %16) #10
  %.not35 = icmp eq ptr %17, null
  br i1 %.not35, label %.loopexit, label %.preheader36

.preheader36:                                     ; preds = %13
  %18 = load i32, ptr %6, align 4, !tbaa !119
  %.not39 = icmp eq i32 %18, 0
  br i1 %.not39, label %.loopexit, label %.preheader.lr.ph

.preheader.lr.ph:                                 ; preds = %.preheader36
  %19 = load i32, ptr %7, align 8, !tbaa !118
  %.not40 = icmp eq i32 %19, 0
  %20 = getelementptr inbounds nuw i8, ptr %2, i64 112
  %21 = getelementptr inbounds nuw i8, ptr %17, i64 8
  %22 = getelementptr inbounds nuw i8, ptr %17, i64 16
  %23 = getelementptr inbounds nuw i8, ptr %2, i64 16
  %24 = zext i1 %5 to i32
  br i1 %.not40, label %.loopexit, label %.preheader.lr.ph.split.us

.preheader.lr.ph.split.us:                        ; preds = %.preheader.lr.ph
  %25 = load i32, ptr %17, align 8, !tbaa !122
  %26 = zext i32 %25 to i64
  %wide.trip.count46 = zext i32 %18 to i64
  %wide.trip.count = zext i32 %19 to i64
  br label %.preheader.us

.preheader.us:                                    ; preds = %._crit_edge.us, %.preheader.lr.ph.split.us
  %indvars.iv43 = phi i64 [ %indvars.iv.next44, %._crit_edge.us ], [ 0, %.preheader.lr.ph.split.us ]
  %27 = trunc nuw i64 %indvars.iv43 to i32
  %28 = mul i32 %19, %27
  %29 = shl i32 %27, 4
  %30 = zext i32 %28 to i64
  br label %31

31:                                               ; preds = %.preheader.us, %av_video_enc_params_block.exit.us
  %indvars.iv = phi i64 [ 0, %.preheader.us ], [ %indvars.iv.next, %av_video_enc_params_block.exit.us ]
  %32 = add nuw nsw i64 %indvars.iv, %30
  %33 = icmp samesign ult i64 %32, %26
  br i1 %33, label %av_video_enc_params_block.exit.us, label %.split.us

av_video_enc_params_block.exit.us:                ; preds = %31
  %34 = load i32, ptr %20, align 8, !tbaa !120
  %35 = mul i32 %34, %27
  %36 = trunc nuw i64 %indvars.iv to i32
  %37 = add i32 %35, %36
  %38 = load i64, ptr %21, align 8, !tbaa !124
  %39 = getelementptr inbounds nuw i8, ptr %17, i64 %38
  %40 = load i64, ptr %22, align 8, !tbaa !125
  %41 = mul i64 %40, %32
  %42 = getelementptr inbounds nuw i8, ptr %39, i64 %41
  %43 = shl i32 %36, 4
  store i32 %43, ptr %42, align 4, !tbaa !126
  %44 = getelementptr inbounds nuw i8, ptr %42, i64 4
  store i32 %29, ptr %44, align 4, !tbaa !128
  %45 = getelementptr inbounds nuw i8, ptr %42, i64 8
  store i32 16, ptr %45, align 4, !tbaa !129
  %46 = getelementptr inbounds nuw i8, ptr %42, i64 12
  store i32 16, ptr %46, align 4, !tbaa !130
  %47 = load ptr, ptr %23, align 8, !tbaa !117
  %48 = zext i32 %37 to i64
  %49 = getelementptr inbounds nuw i8, ptr %47, i64 %48
  %50 = load i8, ptr %49, align 1, !tbaa !75
  %51 = sext i8 %50 to i32
  %52 = shl nsw i32 %51, %24
  %53 = getelementptr inbounds nuw i8, ptr %42, i64 16
  store i32 %52, ptr %53, align 4, !tbaa !131
  %indvars.iv.next = add nuw nsw i64 %indvars.iv, 1
  %exitcond.not = icmp eq i64 %indvars.iv.next, %wide.trip.count
  br i1 %exitcond.not, label %._crit_edge.us, label %31, !llvm.loop !132

._crit_edge.us:                                   ; preds = %av_video_enc_params_block.exit.us
  %indvars.iv.next44 = add nuw nsw i64 %indvars.iv43, 1
  %exitcond47.not = icmp eq i64 %indvars.iv.next44, %wide.trip.count46
  br i1 %exitcond47.not, label %.loopexit, label %.preheader.us, !llvm.loop !133

.split.us:                                        ; preds = %31
  tail call void (ptr, i32, ptr, ...) @av_log(ptr noundef null, i32 noundef 0, ptr noundef nonnull @.str, ptr noundef nonnull @.str.10, ptr noundef nonnull @.str.11, i32 noundef 145) #10
  tail call void @abort() #11
  unreachable

.loopexit:                                        ; preds = %._crit_edge.us, %.preheader.lr.ph, %.preheader36, %13, %4
  %.0 = phi i32 [ 0, %4 ], [ -12, %13 ], [ 0, %.preheader36 ], [ 0, %.preheader.lr.ph ], [ 0, %._crit_edge.us ]
  ret i32 %.0
}